; Function Attrs: mustprogress uwtable
define dso_local noundef nonnull align 8 dereferenceable(96) ptr @_ZN23cmUVProcessChainBuilder17SetExternalStreamENS_6StreamEP8_IO_FILE(ptr noundef nonnull returned writeonly align 8 dereferenceable(96) %0, i32 noundef %1, ptr noundef %2) local_unnamed_addr #2 align 2 {
  %4 = tail call noundef i32 @_Z9cm_filenoP8_IO_FILE(ptr noundef %2)
  %5 = icmp sgt i32 %4, -1
  %switch.i = icmp ult i32 %1, 3
  br i1 %5, label %6, label %11

6:                                                ; preds = %3
  br i1 %switch.i, label %7, label %_ZN23cmUVProcessChainBuilder17SetExternalStreamENS_6StreamEi.exit

7:                                                ; preds = %6
  %8 = zext nneg i32 %1 to i64
  %9 = getelementptr inbounds nuw [3 x %"struct.cmUVProcessChainBuilder::StdioConfiguration"], ptr %0, i64 0, i64 %8
  store i32 2, ptr %9, align 8
  %10 = getelementptr inbounds nuw i8, ptr %9, i64 4
  store i32 %4, ptr %10, align 4
  br label %_ZN23cmUVProcessChainBuilder17SetExternalStreamENS_6StreamEi.exit

11:                                               ; preds = %3
  br i1 %switch.i, label %12, label %_ZN23cmUVProcessChainBuilder17SetExternalStreamENS_6StreamEi.exit

12:                                               ; preds = %11
  %13 = zext nneg i32 %1 to i64
  %14 = getelementptr inbounds nuw [3 x %"struct.cmUVProcessChainBuilder::StdioConfiguration"], ptr %0, i64 0, i64 %13
  store i32 0, ptr %14, align 8
  br label %_ZN23cmUVProcessChainBuilder17SetExternalStreamENS_6StreamEi.exit

_ZN23cmUVProcessChainBuilder17SetExternalStreamENS_6StreamEi.exit: ; preds = %12, %11, %7, %6
  ret ptr %0
}